; Function Attrs: nounwind uwtable
define hidden void @Wayland_DisplayUpdateKeyboardGrabs(ptr noundef readonly captures(address) %0, ptr noundef readnone captures(address) %1) local_unnamed_addr #0 {
  %3 = getelementptr inbounds nuw i8, ptr %0, i64 248
  %4 = getelementptr inbounds nuw i8, ptr %0, i64 256
  %.pn11 = load ptr, ptr %4, align 8
  %.not13 = icmp eq ptr %.pn11, %3
  br i1 %.not13, label %._crit_edge, label %.lr.ph

.lr.ph:                                           ; preds = %2
  %.not10 = icmp eq ptr %1, null
  br label %5

5:                                                ; preds = %.lr.ph, %Wayland_SeatUpdateKeyboardGrab.exit
  %.pn14 = phi ptr [ %.pn11, %.lr.ph ], [ %.pn, %Wayland_SeatUpdateKeyboardGrab.exit ]
  %.015 = getelementptr inbounds i8, ptr %.pn14, i64 -40
  br i1 %.not10, label %10, label %6

6:                                                ; preds = %5
  %7 = getelementptr inbounds nuw i8, ptr %.pn14, i64 48
  %8 = load ptr, ptr %7, align 8
  %9 = icmp eq ptr %8, %1
  br i1 %9, label %10, label %Wayland_SeatUpdateKeyboardGrab.exit

10:                                               ; preds = %6, %5
  %11 = load ptr, ptr %.015, align 8
  %12 = getelementptr inbounds nuw i8, ptr %11, i64 120
  %13 = load ptr, ptr %12, align 8
  %.not.i = icmp eq ptr %13, null
  br i1 %.not.i, label %Wayland_SeatUpdateKeyboardGrab.exit, label %14

14:                                               ; preds = %10
  %15 = getelementptr inbounds nuw i8, ptr %.pn14, i64 24
  %16 = getelementptr inbounds nuw i8, ptr %.pn14, i64 40
  %17 = load ptr, ptr %16, align 8
  %.not15.i = icmp eq ptr %17, null
  br i1 %.not15.i, label %23, label %18

18:                                               ; preds = %14
  %19 = load ptr, ptr @WAYLAND_wl_proxy_marshal_flags, align 8
  %20 = load ptr, ptr @WAYLAND_wl_proxy_get_version, align 8
  %21 = tail call i32 %20(ptr noundef nonnull %17) #12
  %22 = tail call ptr (ptr, i32, ptr, i32, i32, ...) %19(ptr noundef nonnull %17, i32 noundef 0, ptr noundef null, i32 noundef %21, i32 noundef 1) #12
  store ptr null, ptr %16, align 8
  br label %23

23:                                               ; preds = %18, %14
  %24 = load ptr, ptr %15, align 8
  %.not16.i = icmp eq ptr %24, null
  br i1 %.not16.i, label %Wayland_SeatUpdateKeyboardGrab.exit, label %25

25:                                               ; preds = %23
  %26 = getelementptr inbounds nuw i8, ptr %.pn14, i64 48
  %27 = load ptr, ptr %26, align 8
  %.not17.i = icmp eq ptr %27, null
  br i1 %.not17.i, label %Wayland_SeatUpdateKeyboardGrab.exit, label %28

28:                                               ; preds = %25
  %29 = load ptr, ptr %27, align 8
  %30 = getelementptr inbounds nuw i8, ptr %29, i64 72
  %31 = load i64, ptr %30, align 8
  %32 = and i64 %31, 1048576
  %.not18.i = icmp eq i64 %32, 0
  br i1 %.not18.i, label %Wayland_SeatUpdateKeyboardGrab.exit, label %33

33:                                               ; preds = %28
  %34 = load ptr, ptr %12, align 8
  %35 = getelementptr inbounds nuw i8, ptr %27, i64 16
  %36 = load ptr, ptr %35, align 8
  %37 = getelementptr inbounds i8, ptr %.pn14, i64 -32
  %38 = load ptr, ptr %37, align 8
  %39 = load ptr, ptr @WAYLAND_wl_proxy_marshal_flags, align 8
  %40 = load ptr, ptr @WAYLAND_wl_proxy_get_version, align 8
  %41 = tail call i32 %40(ptr noundef %34) #12
  %42 = tail call ptr (ptr, i32, ptr, i32, i32, ...) %39(ptr noundef %34, i32 noundef 1, ptr noundef nonnull @zwp_keyboard_shortcuts_inhibitor_v1_interface, i32 noundef %41, i32 noundef 0, ptr noundef null, ptr noundef %36, ptr noundef %38) #12
  store ptr %42, ptr %16, align 8
  br label %Wayland_SeatUpdateKeyboardGrab.exit

Wayland_SeatUpdateKeyboardGrab.exit:              ; preds = %33, %28, %25, %23, %10, %6
  %43 = getelementptr inbounds nuw i8, ptr %.pn14, i64 8
  %.pn = load ptr, ptr %43, align 8
  %.not = icmp eq ptr %.pn, %3
  br i1 %.not, label %._crit_edge, label %5, !llvm.loop !23

._crit_edge:                                      ; preds = %Wayland_SeatUpdateKeyboardGrab.exit, %2
  ret void
}